; Function Attrs: nounwind uwtable
define void @duckdb_je_emap_deregister_boundary(ptr noundef %0, ptr noundef %1, ptr noundef readonly captures(none) %2) local_unnamed_addr #0 {
  %4 = alloca %struct.rtree_ctx_s, align 8
  %5 = alloca ptr, align 8
  %6 = alloca ptr, align 8
  %7 = icmp eq ptr %0, null
  call void @llvm.lifetime.start.p0(i64 384, ptr nonnull %4) #6
  br i1 %7, label %8, label %9

8:                                                ; preds = %3
  call void @duckdb_je_rtree_ctx_data_init(ptr noundef nonnull %4) #6
  br label %tsdn_rtree_ctx.exit

9:                                                ; preds = %3
  %10 = getelementptr inbounds nuw i8, ptr %0, i64 440
  br label %tsdn_rtree_ctx.exit

tsdn_rtree_ctx.exit:                              ; preds = %8, %9
  %.0.i11 = phi ptr [ %4, %8 ], [ %10, %9 ]
  call void @llvm.lifetime.start.p0(i64 8, ptr nonnull %5) #6
  call void @llvm.lifetime.start.p0(i64 8, ptr nonnull %6) #6
  %11 = call fastcc zeroext i1 @emap_rtree_leaf_elms_lookup(ptr noundef %0, ptr noundef %1, ptr noundef nonnull %.0.i11, ptr noundef %2, i1 noundef zeroext true, i1 noundef zeroext false, ptr noundef nonnull %5, ptr noundef nonnull %6)
  %12 = load ptr, ptr %5, align 8, !tbaa !25
  %13 = load ptr, ptr %6, align 8, !tbaa !25
  store atomic i64 65302194596872192, ptr %12 release, align 8
  %.not.i = icmp eq ptr %13, null
  br i1 %.not.i, label %emap_rtree_write_acquired.exit, label %14

14:                                               ; preds = %tsdn_rtree_ctx.exit
  store atomic i64 65302194596872192, ptr %13 release, align 8
  br label %emap_rtree_write_acquired.exit

emap_rtree_write_acquired.exit:                   ; preds = %tsdn_rtree_ctx.exit, %14
  call void @llvm.lifetime.end.p0(i64 8, ptr nonnull %6) #6
  call void @llvm.lifetime.end.p0(i64 8, ptr nonnull %5) #6
  call void @llvm.lifetime.end.p0(i64 384, ptr nonnull %4) #6
  ret void
}